target datalayout = "e-m:e-p270:32:32-p271:32:32-p272:64:64-i64:64-i128:128-f80:128-n8:16:32:64-S128"
target triple = "x86_64-pc-linux-gnu"

@hf_gryphon_init_strat_reset_limit = internal global i32 0, align 4
@hf_gryphon_init_strat_delay = internal global i32 0, align 4
@.str.1087 = private unnamed_addr constant [26 x i8] c"Reset Limit = %u messages\00", align 1
@.str.1088 = private unnamed_addr constant [24 x i8] c"Delay %d = %.2f seconds\00", align 1
@.str.1089 = private unnamed_addr constant [20 x i8] c"Delay %d = infinite\00", align 1

; Function Attrs: null_pointer_is_valid sspstrong uwtable
define internal i32 @cmd_init_strat(ptr noundef %0, i32 noundef %1, ptr noundef %2) #0 {
  %4 = alloca ptr, align 8
  %5 = alloca i32, align 4
  %6 = alloca ptr, align 8
  %7 = alloca i32, align 4
  %8 = alloca i32, align 4
  %9 = alloca i32, align 4
  %10 = alloca float, align 4
  store ptr %0, ptr %4, align 8
  store i32 %1, ptr %5, align 4
  store ptr %2, ptr %6, align 8
  call void @llvm.lifetime.start.p0(i64 4, ptr %7) #7
  call void @llvm.lifetime.start.p0(i64 4, ptr %8) #7
  call void @llvm.lifetime.start.p0(i64 4, ptr %9) #7
  call void @llvm.lifetime.start.p0(i64 4, ptr %10) #7
  %11 = load ptr, ptr %4, align 8
  %12 = load i32, ptr %5, align 4
  %13 = call i32 @tvb_reported_length_remaining(ptr noundef %11, i32 noundef %12)
  store i32 %13, ptr %8, align 4
  %14 = load ptr, ptr %4, align 8
  %15 = load i32, ptr %5, align 4
  %16 = call i32 @tvb_get_ntohl(ptr noundef %14, i32 noundef %15)
  store i32 %16, ptr %7, align 4
  %17 = load ptr, ptr %6, align 8
  %18 = load i32, ptr @hf_gryphon_init_strat_reset_limit, align 4
  %19 = load ptr, ptr %4, align 8
  %20 = load i32, ptr %5, align 4
  %21 = load i32, ptr %7, align 4
  %22 = load i32, ptr %7, align 4
  %23 = call ptr (ptr, i32, ptr, i32, i32, i32, ptr, ...) @proto_tree_add_uint_format_value(ptr noundef %17, i32 noundef %18, ptr noundef %19, i32 noundef %20, i32 noundef 4, i32 noundef %21, ptr noundef @.str.1087, i32 noundef %22)
  %24 = load i32, ptr %5, align 4
  %25 = add i32 %24, 4
  store i32 %25, ptr %5, align 4
  %26 = load i32, ptr %8, align 4
  %27 = sub i32 %26, 4
  store i32 %27, ptr %8, align 4
  store i32 1, ptr %9, align 4
  br label %28

28:                                               ; preds = %58, %3
  %29 = load i32, ptr %8, align 4
  %30 = icmp ne i32 %29, 0
  br i1 %30, label %31, label %65

31:                                               ; preds = %28
  %32 = load ptr, ptr %4, align 8
  %33 = load i32, ptr %5, align 4
  %34 = call zeroext i8 @tvb_get_uint8(ptr noundef %32, i32 noundef %33)
  %35 = uitofp i8 %34 to float
  store float %35, ptr %10, align 4
  %36 = load float, ptr %10, align 4
  %37 = fcmp une float %36, 0.000000e+00
  br i1 %37, label %38, label %50

38:                                               ; preds = %31
  %39 = load ptr, ptr %6, align 8
  %40 = load i32, ptr @hf_gryphon_init_strat_delay, align 4
  %41 = load ptr, ptr %4, align 8
  %42 = load i32, ptr %5, align 4
  %43 = load float, ptr %10, align 4
  %44 = fdiv float %43, 4.000000e+00
  %45 = load i32, ptr %9, align 4
  %46 = load float, ptr %10, align 4
  %47 = fdiv float %46, 4.000000e+00
  %48 = fpext float %47 to double
  %49 = call ptr (ptr, i32, ptr, i32, i32, float, ptr, ...) @proto_tree_add_float_format_value(ptr noundef %39, i32 noundef %40, ptr noundef %41, i32 noundef %42, i32 noundef 1, float noundef %44, ptr noundef @.str.1088, i32 noundef %45, double noundef %48)
  br label %57

50:                                               ; preds = %31
  %51 = load ptr, ptr %6, align 8
  %52 = load i32, ptr @hf_gryphon_init_strat_delay, align 4
  %53 = load ptr, ptr %4, align 8
  %54 = load i32, ptr %5, align 4
  %55 = load i32, ptr %9, align 4
  %56 = call ptr (ptr, i32, ptr, i32, i32, float, ptr, ...) @proto_tree_add_float_format_value(ptr noundef %51, i32 noundef %52, ptr noundef %53, i32 noundef %54, i32 noundef 1, float noundef 0.000000e+00, ptr noundef @.str.1089, i32 noundef %55)
  br label %57

57:                                               ; preds = %50, %38
  br label %58

58:                                               ; preds = %57
  %59 = load i32, ptr %9, align 4
  %60 = add i32 %59, 1
  store i32 %60, ptr %9, align 4
  %61 = load i32, ptr %5, align 4
  %62 = add i32 %61, 1
  store i32 %62, ptr %5, align 4
  %63 = load i32, ptr %8, align 4
  %64 = add i32 %63, -1
  store i32 %64, ptr %8, align 4
  br label %28, !llvm.loop !23

65:                                               ; preds = %28
  %66 = load i32, ptr %5, align 4
  call void @llvm.lifetime.end.p0(i64 4, ptr %10) #7
  call void @llvm.lifetime.end.p0(i64 4, ptr %9) #7
  call void @llvm.lifetime.end.p0(i64 4, ptr %8) #7
  call void @llvm.lifetime.end.p0(i64 4, ptr %7) #7
  ret i32 %66
}