; Function Attrs: null_pointer_is_valid sspstrong uwtable
define internal fastcc i32 @cmd_init_strat(ptr noundef %0, i32 noundef range(i32 12, 17) %1, ptr noundef %2) unnamed_addr #0 {
  %4 = tail call i32 @tvb_reported_length_remaining(ptr noundef %0, i32 noundef %1)
  %5 = tail call i32 @tvb_get_ntohl(ptr noundef %0, i32 noundef %1)
  %6 = load i32, ptr @hf_gryphon_init_strat_reset_limit, align 4
  %7 = tail call ptr (ptr, i32, ptr, i32, i32, i32, ptr, ...) @proto_tree_add_uint_format_value(ptr noundef %2, i32 noundef %6, ptr noundef %0, i32 noundef %1, i32 noundef 4, i32 noundef %5, ptr noundef nonnull @.str.1087, i32 noundef %5)
  %8 = add nuw nsw i32 %1, 4
  %9 = add i32 %4, -4
  %.not32 = icmp eq i32 %9, 0
  br i1 %.not32, label %._crit_edge, label %.lr.ph

.lr.ph:                                           ; preds = %3, %20
  %.035 = phi i32 [ %22, %20 ], [ %8, %3 ]
  %.02834 = phi i32 [ %21, %20 ], [ 1, %3 ]
  %.02933 = phi i32 [ %23, %20 ], [ %9, %3 ]
  %10 = tail call zeroext i8 @tvb_get_uint8(ptr noundef %0, i32 noundef %.035)
  %.not31 = icmp eq i8 %10, 0
  br i1 %.not31, label %17, label %11

11:                                               ; preds = %.lr.ph
  %12 = uitofp i8 %10 to float
  %13 = load i32, ptr @hf_gryphon_init_strat_delay, align 4
  %14 = fmul float %12, 2.500000e-01
  %15 = fpext float %14 to double
  %16 = tail call ptr (ptr, i32, ptr, i32, i32, float, ptr, ...) @proto_tree_add_float_format_value(ptr noundef %2, i32 noundef %13, ptr noundef %0, i32 noundef %.035, i32 noundef 1, float noundef %14, ptr noundef nonnull @.str.1088, i32 noundef %.02834, double noundef %15)
  br label %20

17:                                               ; preds = %.lr.ph
  %18 = load i32, ptr @hf_gryphon_init_strat_delay, align 4
  %19 = tail call ptr (ptr, i32, ptr, i32, i32, float, ptr, ...) @proto_tree_add_float_format_value(ptr noundef %2, i32 noundef %18, ptr noundef %0, i32 noundef %.035, i32 noundef 1, float noundef 0.000000e+00, ptr noundef nonnull @.str.1089, i32 noundef %.02834)
  br label %20

20:                                               ; preds = %11, %17
  %21 = add i32 %.02834, 1
  %22 = add i32 %.035, 1
  %23 = add i32 %.02933, -1
  %.not = icmp eq i32 %23, 0
  br i1 %.not, label %._crit_edge, label %.lr.ph, !llvm.loop !23

._crit_edge:                                      ; preds = %20, %3
  %.0.lcssa = phi i32 [ %8, %3 ], [ %22, %20 ]
  ret i32 %.0.lcssa
}